target datalayout = "e-m:e-p270:32:32-p271:32:32-p272:64:64-i64:64-i128:128-f80:128-n8:16:32:64-S128"
target triple = "x86_64-pc-linux-gnu"

%struct.QArrayData = type { %"class.QtPrivate::RefCount", i32, i32, i64 }
%"class.QtPrivate::RefCount" = type { %class.QBasicAtomicInteger }
%class.QBasicAtomicInteger = type { %"struct.std::atomic" }
%"struct.std::atomic" = type { %"struct.std::__atomic_base" }
%"struct.std::__atomic_base" = type { i32 }
%"class.vcg::tri::io::BreHeader" = type { ptr, %class.QByteArray }
%class.QByteArray = type { ptr }

; Function Attrs: mustprogress nounwind uwtable
define linkonce_odr noundef ptr @_ZN10QArrayData4dataEv(ptr noundef nonnull align 8 dereferenceable(24) %0) #0 comdat align 2 {
  %2 = alloca ptr, align 8
  store ptr %0, ptr %2, align 8
  %3 = load ptr, ptr %2, align 8
  %4 = getelementptr inbounds %struct.QArrayData, ptr %3, i32 0, i32 3
  %5 = load i64, ptr %4, align 8
  %6 = getelementptr inbounds i8, ptr %3, i64 %5
  ret ptr %6
}

; Function Attrs: mustprogress nounwind uwtable
define linkonce_odr noundef ptr @_ZN15QTypedArrayDataIcE4dataEv(ptr noundef nonnull align 8 dereferenceable(24) %0) #0 comdat align 2 {
  %2 = alloca ptr, align 8
  store ptr %0, ptr %2, align 8
  %3 = load ptr, ptr %2, align 8
  %4 = call noundef ptr @_ZN10QArrayData4dataEv(ptr noundef nonnull align 8 dereferenceable(24) %3)
  ret ptr %4
}

; Function Attrs: mustprogress nounwind uwtable
define linkonce_odr noundef ptr @_ZNK10QByteArray4dataEv(ptr noundef nonnull align 8 dereferenceable(8) %0) #0 comdat align 2 {
  %2 = alloca ptr, align 8
  store ptr %0, ptr %2, align 8
  %3 = load ptr, ptr %2, align 8
  %4 = getelementptr inbounds %class.QByteArray, ptr %3, i32 0, i32 0
  %5 = load ptr, ptr %4, align 8
  %6 = call noundef ptr @_ZN15QTypedArrayDataIcE4dataEv(ptr noundef nonnull align 8 dereferenceable(24) %5)
  ret ptr %6
}

; Function Attrs: mustprogress uwtable
define noundef i32 @_ZNK3vcg3tri2io9BreHeader7VersionEv(ptr noundef nonnull align 8 dereferenceable(16) %0) #5 align 2 {
  %2 = alloca ptr, align 8
  store ptr %0, ptr %2, align 8
  %3 = load ptr, ptr %2, align 8
  %4 = getelementptr inbounds %"class.vcg::tri::io::BreHeader", ptr %3, i32 0, i32 1
  %5 = call noundef ptr @_ZNK10QByteArray4dataEv(ptr noundef nonnull align 8 dereferenceable(8) %4)
  %6 = getelementptr inbounds i8, ptr %5, i64 2
  %7 = load i16, ptr %6, align 2
  %8 = zext i16 %7 to i32
  ret i32 %8
}

; Function Attrs: mustprogress uwtable
define noundef zeroext i1 @_ZNK3vcg3tri2io9BreHeader11TransformedEv(ptr noundef nonnull align 8 dereferenceable(16) %0) #5 align 2 {
  %2 = alloca i1, align 1
  %3 = alloca ptr, align 8
  store ptr %0, ptr %3, align 8
  %4 = load ptr, ptr %3, align 8
  %5 = call noundef i32 @_ZNK3vcg3tri2io9BreHeader7VersionEv(ptr noundef nonnull align 8 dereferenceable(16) %4)
  %6 = icmp ne i32 %5, 257
  br i1 %6, label %7, label %11

7:                                                ; preds = %1
  %8 = call noundef i32 @_ZNK3vcg3tri2io9BreHeader7VersionEv(ptr noundef nonnull align 8 dereferenceable(16) %4)
  %9 = icmp ne i32 %8, 513
  br i1 %9, label %10, label %11

10:                                               ; preds = %7
  store i1 false, ptr %2, align 1
  br label %18

11:                                               ; preds = %7, %1
  %12 = getelementptr inbounds %"class.vcg::tri::io::BreHeader", ptr %4, i32 0, i32 1
  %13 = call noundef ptr @_ZNK10QByteArray4dataEv(ptr noundef nonnull align 8 dereferenceable(8) %12)
  %14 = getelementptr inbounds i8, ptr %13, i64 62
  %15 = load i16, ptr %14, align 2
  %16 = zext i16 %15 to i32
  %17 = icmp ne i32 %16, 0
  store i1 %17, ptr %2, align 1
  br label %18

18:                                               ; preds = %11, %10
  %19 = load i1, ptr %2, align 1
  ret i1 %19
}