; Function Attrs: mustprogress nofree norecurse nosync nounwind willreturn memory(read, inaccessiblemem: none) uwtable
define noundef zeroext i1 @_ZNK3vcg3tri2io9BreHeader11TransformedEv(ptr nocapture noundef nonnull readonly align 8 dereferenceable(16) %0) local_unnamed_addr #14 align 2 {
  %2 = getelementptr inbounds i8, ptr %0, i64 8
  %3 = load ptr, ptr %2, align 8
  %4 = getelementptr inbounds i8, ptr %3, i64 16
  %5 = load i64, ptr %4, align 8
  %6 = getelementptr inbounds i8, ptr %3, i64 %5
  %7 = getelementptr inbounds i8, ptr %6, i64 2
  %8 = load i16, ptr %7, align 2
  switch i16 %8, label %13 [
    i16 257, label %9
    i16 513, label %9
  ]

9:                                                ; preds = %1, %1
  %10 = getelementptr inbounds i8, ptr %6, i64 62
  %11 = load i16, ptr %10, align 2
  %12 = icmp ne i16 %11, 0
  br label %13

13:                                               ; preds = %1, %9
  %.0 = phi i1 [ %12, %9 ], [ false, %1 ]
  ret i1 %.0
}